; Function Attrs: mustprogress nounwind uwtable
define dso_local void @_ZN5clang16OMPClausePrinter20VisitOMPAbsentClauseEPNS_15OMPAbsentClauseE(ptr noundef nonnull readonly align 8 captures(none) dereferenceable(16) %0, ptr noundef readonly %1) local_unnamed_addr #1 align 2 {
  %3 = load ptr, ptr %0, align 8
  %4 = getelementptr inbounds nuw i8, ptr %3, i64 24
  %5 = load ptr, ptr %4, align 8
  %6 = getelementptr inbounds nuw i8, ptr %3, i64 32
  %7 = load ptr, ptr %6, align 8
  %8 = ptrtoint ptr %5 to i64
  %9 = ptrtoint ptr %7 to i64
  %10 = sub i64 %8, %9
  %11 = icmp ult i64 %10, 7
  br i1 %11, label %12, label %14

12:                                               ; preds = %2
  %13 = tail call noundef nonnull align 8 dereferenceable(48) ptr @_ZN4llvm11raw_ostream5writeEPKcm(ptr noundef nonnull align 8 dereferenceable(48) %3, ptr noundef nonnull @.str.40, i64 noundef 7) #22
  br label %_ZN4llvm11raw_ostreamlsEPKc.exit

14:                                               ; preds = %2
  tail call void @llvm.memcpy.p0.p0.i64(ptr noundef nonnull align 1 dereferenceable(7) %7, ptr noundef nonnull align 1 dereferenceable(7) @.str.40, i64 7, i1 false)
  %15 = load ptr, ptr %6, align 8
  %16 = getelementptr inbounds nuw i8, ptr %15, i64 7
  store ptr %16, ptr %6, align 8
  br label %_ZN4llvm11raw_ostreamlsEPKc.exit

_ZN4llvm11raw_ostreamlsEPKc.exit:                 ; preds = %12, %14
  %17 = getelementptr inbounds nuw i8, ptr %1, i64 16
  %18 = load i32, ptr %17, align 4
  %19 = zext i32 %18 to i64
  %.idx = shl nuw nsw i64 %19, 2
  %20 = getelementptr inbounds nuw i8, ptr %1, i64 %.idx
  %.ptr20 = getelementptr inbounds nuw i8, ptr %20, i64 20
  %.not17 = icmp eq i32 %18, 0
  br i1 %.not17, label %._crit_edge, label %.lr.ph.preheader

.lr.ph.preheader:                                 ; preds = %_ZN4llvm11raw_ostreamlsEPKc.exit
  %.ptr = getelementptr inbounds nuw i8, ptr %1, i64 20
  br label %.lr.ph

.lr.ph:                                           ; preds = %.lr.ph.preheader, %_ZN4llvm11raw_ostreamlsENS_9StringRefE.exit
  %.019 = phi i1 [ false, %_ZN4llvm11raw_ostreamlsENS_9StringRefE.exit ], [ true, %.lr.ph.preheader ]
  %.0918 = phi ptr [ %55, %_ZN4llvm11raw_ostreamlsENS_9StringRefE.exit ], [ %.ptr, %.lr.ph.preheader ]
  br i1 %.019, label %_ZN4llvm11raw_ostreamlsEPKc.exit12, label %21

21:                                               ; preds = %.lr.ph
  %22 = load ptr, ptr %0, align 8
  %23 = getelementptr inbounds nuw i8, ptr %22, i64 24
  %24 = load ptr, ptr %23, align 8
  %25 = getelementptr inbounds nuw i8, ptr %22, i64 32
  %26 = load ptr, ptr %25, align 8
  %27 = ptrtoint ptr %24 to i64
  %28 = ptrtoint ptr %26 to i64
  %29 = sub i64 %27, %28
  %30 = icmp ult i64 %29, 2
  br i1 %30, label %31, label %33

31:                                               ; preds = %21
  %32 = tail call noundef nonnull align 8 dereferenceable(48) ptr @_ZN4llvm11raw_ostream5writeEPKcm(ptr noundef nonnull align 8 dereferenceable(48) %22, ptr noundef nonnull @.str.10, i64 noundef 2) #22
  br label %_ZN4llvm11raw_ostreamlsEPKc.exit12

33:                                               ; preds = %21
  store i16 8236, ptr %26, align 1
  %34 = load ptr, ptr %25, align 8
  %35 = getelementptr inbounds nuw i8, ptr %34, i64 2
  store ptr %35, ptr %25, align 8
  br label %_ZN4llvm11raw_ostreamlsEPKc.exit12

_ZN4llvm11raw_ostreamlsEPKc.exit12:               ; preds = %33, %31, %.lr.ph
  %36 = load ptr, ptr %0, align 8
  %37 = load i32, ptr %.0918, align 4
  %38 = tail call { ptr, i64 } @_ZN4llvm3omp22getOpenMPDirectiveNameENS0_9DirectiveE(i32 noundef %37) #22
  %39 = extractvalue { ptr, i64 } %38, 0
  %40 = extractvalue { ptr, i64 } %38, 1
  %41 = getelementptr inbounds nuw i8, ptr %36, i64 24
  %42 = load ptr, ptr %41, align 8
  %43 = getelementptr inbounds nuw i8, ptr %36, i64 32
  %44 = load ptr, ptr %43, align 8
  %45 = ptrtoint ptr %42 to i64
  %46 = ptrtoint ptr %44 to i64
  %47 = sub i64 %45, %46
  %48 = icmp ugt i64 %40, %47
  br i1 %48, label %49, label %51

49:                                               ; preds = %_ZN4llvm11raw_ostreamlsEPKc.exit12
  %50 = tail call noundef nonnull align 8 dereferenceable(48) ptr @_ZN4llvm11raw_ostream5writeEPKcm(ptr noundef nonnull align 8 dereferenceable(48) %36, ptr noundef %39, i64 noundef %40) #22
  br label %_ZN4llvm11raw_ostreamlsENS_9StringRefE.exit

51:                                               ; preds = %_ZN4llvm11raw_ostreamlsEPKc.exit12
  %.not.i = icmp eq i64 %40, 0
  br i1 %.not.i, label %_ZN4llvm11raw_ostreamlsENS_9StringRefE.exit, label %52

52:                                               ; preds = %51
  tail call void @llvm.memcpy.p0.p0.i64(ptr align 1 %44, ptr align 1 %39, i64 %40, i1 false)
  %53 = load ptr, ptr %43, align 8
  %54 = getelementptr inbounds i8, ptr %53, i64 %40
  store ptr %54, ptr %43, align 8
  br label %_ZN4llvm11raw_ostreamlsENS_9StringRefE.exit

_ZN4llvm11raw_ostreamlsENS_9StringRefE.exit:      ; preds = %49, %51, %52
  %55 = getelementptr inbounds nuw i8, ptr %.0918, i64 4
  %.not = icmp eq ptr %55, %.ptr20
  br i1 %.not, label %._crit_edge, label %.lr.ph

._crit_edge:                                      ; preds = %_ZN4llvm11raw_ostreamlsENS_9StringRefE.exit, %_ZN4llvm11raw_ostreamlsEPKc.exit
  %56 = load ptr, ptr %0, align 8
  %57 = getelementptr inbounds nuw i8, ptr %56, i64 24
  %58 = load ptr, ptr %57, align 8
  %59 = getelementptr inbounds nuw i8, ptr %56, i64 32
  %60 = load ptr, ptr %59, align 8
  %61 = icmp eq ptr %58, %60
  br i1 %61, label %62, label %64

62:                                               ; preds = %._crit_edge
  %63 = tail call noundef nonnull align 8 dereferenceable(48) ptr @_ZN4llvm11raw_ostream5writeEPKcm(ptr noundef nonnull align 8 dereferenceable(48) %56, ptr noundef nonnull @.str.3, i64 noundef 1) #22
  br label %_ZN4llvm11raw_ostreamlsEPKc.exit15

64:                                               ; preds = %._crit_edge
  store i8 41, ptr %60, align 1
  %65 = load ptr, ptr %59, align 8
  %66 = getelementptr inbounds nuw i8, ptr %65, i64 1
  store ptr %66, ptr %59, align 8
  br label %_ZN4llvm11raw_ostreamlsEPKc.exit15

_ZN4llvm11raw_ostreamlsEPKc.exit15:               ; preds = %62, %64
  ret void
}